target datalayout = "e-m:e-p270:32:32-p271:32:32-p272:64:64-i64:64-i128:128-f80:128-n8:16:32:64-S128"
target triple = "x86_64-unknown-linux-gnu"

%"class.std::shared_ptr" = type { %"class.std::__shared_ptr" }
%"class.std::__shared_ptr" = type { ptr, %"class.std::__shared_count" }
%"class.std::__shared_count" = type { ptr }
%"class.hermes::hbc::RuntimeFunctionHeader" = type { ptr }
%"class.hermes::hbc::BytecodeVisitor" = type <{ ptr, %"class.std::shared_ptr", i32, [4 x i8] }>
%"struct.hermes::hbc::FunctionHeader" = type <{ i32, i32, i32, i32, i32, i32, i32, i8, i8, %"union.hermes::hbc::FunctionHeaderFlag" }>
%"union.hermes::hbc::FunctionHeaderFlag" = type { %struct.anon.50 }
%struct.anon.50 = type { i8 }

; Function Attrs: mustprogress nounwind uwtable
define linkonce_odr hidden noundef ptr @_ZNKSt12__shared_ptrIN6hermes3hbc14BCProviderBaseELN9__gnu_cxx12_Lock_policyE2EE3getEv(ptr noundef nonnull align 8 dereferenceable(16) %this) #0 comdat align 2 {
entry:
  %this.addr = alloca ptr, align 8
  store ptr %this, ptr %this.addr, align 8
  %this1 = load ptr, ptr %this.addr, align 8
  %_M_ptr = getelementptr inbounds %"class.std::__shared_ptr", ptr %this1, i32 0, i32 0
  %0 = load ptr, ptr %_M_ptr, align 8
  ret ptr %0
}

; Function Attrs: mustprogress nounwind uwtable
define linkonce_odr hidden noundef ptr @_ZNK6hermes3hbc21RuntimeFunctionHeader7asSmallEv(ptr noundef nonnull align 8 dereferenceable(8) %this) #0 comdat align 2 {
entry:
  %this.addr = alloca ptr, align 8
  store ptr %this, ptr %this.addr, align 8
  %this1 = load ptr, ptr %this.addr, align 8
  %ptr_ = getelementptr inbounds %"class.hermes::hbc::RuntimeFunctionHeader", ptr %this1, i32 0, i32 0
  %0 = load ptr, ptr %ptr_, align 8
  ret ptr %0
}

; Function Attrs: mustprogress nounwind uwtable
define linkonce_odr hidden noundef ptr @_ZNK6hermes3hbc21RuntimeFunctionHeader7asLargeEv(ptr noundef nonnull align 8 dereferenceable(8) %this) #0 comdat align 2 {
entry:
  %this.addr = alloca ptr, align 8
  store ptr %this, ptr %this.addr, align 8
  %this1 = load ptr, ptr %this.addr, align 8
  %ptr_ = getelementptr inbounds %"class.hermes::hbc::RuntimeFunctionHeader", ptr %this1, i32 0, i32 0
  %0 = load ptr, ptr %ptr_, align 8
  %add.ptr = getelementptr inbounds i8, ptr %0, i64 -1
  ret ptr %add.ptr
}

; Function Attrs: mustprogress nounwind uwtable
define linkonce_odr hidden noundef zeroext i1 @_ZNK6hermes3hbc21RuntimeFunctionHeader7isLargeEv(ptr noundef nonnull align 8 dereferenceable(8) %this) #0 comdat align 2 {
entry:
  %this.addr = alloca ptr, align 8
  store ptr %this, ptr %this.addr, align 8
  %this1 = load ptr, ptr %this.addr, align 8
  %ptr_ = getelementptr inbounds %"class.hermes::hbc::RuntimeFunctionHeader", ptr %this1, i32 0, i32 0
  %0 = load ptr, ptr %ptr_, align 8
  %1 = ptrtoint ptr %0 to i64
  %and = and i64 %1, 1
  %tobool = icmp ne i64 %and, 0
  ret i1 %tobool
}

; Function Attrs: mustprogress nounwind uwtable
define linkonce_odr hidden noundef ptr @_ZNKSt19__shared_ptr_accessIN6hermes3hbc14BCProviderBaseELN9__gnu_cxx12_Lock_policyE2ELb0ELb0EE6_M_getEv(ptr noundef nonnull align 1 dereferenceable(1) %this) #0 comdat align 2 {
entry:
  %this.addr = alloca ptr, align 8
  store ptr %this, ptr %this.addr, align 8
  %this1 = load ptr, ptr %this.addr, align 8
  %call = call noundef ptr @_ZNKSt12__shared_ptrIN6hermes3hbc14BCProviderBaseELN9__gnu_cxx12_Lock_policyE2EE3getEv(ptr noundef nonnull align 8 dereferenceable(16) %this1) #11
  ret ptr %call
}

; Function Attrs: mustprogress nounwind uwtable
define linkonce_odr hidden noundef i32 @_ZNK6hermes3hbc21RuntimeFunctionHeader19bytecodeSizeInBytesEv(ptr noundef nonnull align 8 dereferenceable(8) %this) #0 comdat align 2 {
entry:
  %retval = alloca i32, align 4
  %this.addr = alloca ptr, align 8
  store ptr %this, ptr %this.addr, align 8
  %this1 = load ptr, ptr %this.addr, align 8
  %call = call noundef zeroext i1 @_ZNK6hermes3hbc21RuntimeFunctionHeader7isLargeEv(ptr noundef nonnull align 8 dereferenceable(8) %this1)
  br i1 %call, label %if.then, label %if.else

if.then:                                          ; preds = %entry
  %call2 = call noundef ptr @_ZNK6hermes3hbc21RuntimeFunctionHeader7asLargeEv(ptr noundef nonnull align 8 dereferenceable(8) %this1)
  %bytecodeSizeInBytes = getelementptr inbounds %"struct.hermes::hbc::FunctionHeader", ptr %call2, i32 0, i32 2
  %0 = load i32, ptr %bytecodeSizeInBytes, align 1
  store i32 %0, ptr %retval, align 4
  br label %return

if.else:                                          ; preds = %entry
  %call3 = call noundef ptr @_ZNK6hermes3hbc21RuntimeFunctionHeader7asSmallEv(ptr noundef nonnull align 8 dereferenceable(8) %this1)
  %bf.load = load i120, ptr %call3, align 1
  %bf.lshr = lshr i120 %bf.load, 32
  %bf.clear = and i120 %bf.lshr, 32767
  %bf.cast = trunc i120 %bf.clear to i32
  store i32 %bf.cast, ptr %retval, align 4
  br label %return

return:                                           ; preds = %if.else, %if.then
  %1 = load i32, ptr %retval, align 4
  ret i32 %1
}

; Function Attrs: mustprogress nounwind uwtable
define linkonce_odr hidden noundef ptr @_ZNKSt19__shared_ptr_accessIN6hermes3hbc14BCProviderBaseELN9__gnu_cxx12_Lock_policyE2ELb0ELb0EEptEv(ptr noundef nonnull align 1 dereferenceable(1) %this) #0 comdat align 2 {
entry:
  %this.addr = alloca ptr, align 8
  store ptr %this, ptr %this.addr, align 8
  %this1 = load ptr, ptr %this.addr, align 8
  %call = call noundef ptr @_ZNKSt19__shared_ptr_accessIN6hermes3hbc14BCProviderBaseELN9__gnu_cxx12_Lock_policyE2ELb0ELb0EE6_M_getEv(ptr noundef nonnull align 1 dereferenceable(1) %this1) #11
  ret ptr %call
}

; Function Attrs: mustprogress nounwind uwtable
define hidden void @_ZN6hermes3hbc15BytecodeVisitor27visitInstructionsInFunctionEj(ptr noundef nonnull align 8 dereferenceable(28) %this, i32 noundef %funcId) #0 align 2 {
entry:
  %this.addr = alloca ptr, align 8
  %funcId.addr = alloca i32, align 4
  %functionHeader = alloca %"class.hermes::hbc::RuntimeFunctionHeader", align 8
  %bytecodeStart = alloca ptr, align 8
  %bytecodeEnd = alloca ptr, align 8
  store ptr %this, ptr %this.addr, align 8
  store i32 %funcId, ptr %funcId.addr, align 4
  %this1 = load ptr, ptr %this.addr, align 8
  %0 = load i32, ptr %funcId.addr, align 4
  %funcId_ = getelementptr inbounds %"class.hermes::hbc::BytecodeVisitor", ptr %this1, i32 0, i32 2
  store i32 %0, ptr %funcId_, align 8
  %bcProvider_ = getelementptr inbounds %"class.hermes::hbc::BytecodeVisitor", ptr %this1, i32 0, i32 1
  %call = call noundef ptr @_ZNKSt19__shared_ptr_accessIN6hermes3hbc14BCProviderBaseELN9__gnu_cxx12_Lock_policyE2ELb0ELb0EEptEv(ptr noundef nonnull align 1 dereferenceable(1) %bcProvider_) #11
  %1 = load i32, ptr %funcId.addr, align 4
  %vtable = load ptr, ptr %call, align 8
  %vfn = getelementptr inbounds ptr, ptr %vtable, i64 4
  %2 = load ptr, ptr %vfn, align 8
  %call2 = call ptr %2(ptr noundef nonnull align 8 dereferenceable(280) %call, i32 noundef %1)
  %coerce.dive = getelementptr inbounds %"class.hermes::hbc::RuntimeFunctionHeader", ptr %functionHeader, i32 0, i32 0
  store ptr %call2, ptr %coerce.dive, align 8
  %bcProvider_3 = getelementptr inbounds %"class.hermes::hbc::BytecodeVisitor", ptr %this1, i32 0, i32 1
  %call4 = call noundef ptr @_ZNKSt19__shared_ptr_accessIN6hermes3hbc14BCProviderBaseELN9__gnu_cxx12_Lock_policyE2ELb0ELb0EEptEv(ptr noundef nonnull align 1 dereferenceable(1) %bcProvider_3) #11
  %3 = load i32, ptr %funcId.addr, align 4
  %vtable5 = load ptr, ptr %call4, align 8
  %vfn6 = getelementptr inbounds ptr, ptr %vtable5, i64 5
  %4 = load ptr, ptr %vfn6, align 8
  %call7 = call noundef ptr %4(ptr noundef nonnull align 8 dereferenceable(280) %call4, i32 noundef %3)
  store ptr %call7, ptr %bytecodeStart, align 8
  %5 = load ptr, ptr %bytecodeStart, align 8
  %call8 = call noundef i32 @_ZNK6hermes3hbc21RuntimeFunctionHeader19bytecodeSizeInBytesEv(ptr noundef nonnull align 8 dereferenceable(8) %functionHeader)
  %idx.ext = zext i32 %call8 to i64
  %add.ptr = getelementptr inbounds i8, ptr %5, i64 %idx.ext
  store ptr %add.ptr, ptr %bytecodeEnd, align 8
  %6 = load i32, ptr %funcId.addr, align 4
  %7 = load ptr, ptr %bytecodeStart, align 8
  %vtable9 = load ptr, ptr %this1, align 8
  %vfn10 = getelementptr inbounds ptr, ptr %vtable9, i64 0
  %8 = load ptr, ptr %vfn10, align 8
  call void %8(ptr noundef nonnull align 8 dereferenceable(28) %this1, i32 noundef %6, ptr noundef %7)
  %9 = load ptr, ptr %bytecodeStart, align 8
  %10 = load ptr, ptr %bytecodeEnd, align 8
  call void @_ZN6hermes3hbc15BytecodeVisitor23visitInstructionsInBodyEPKhS3_b(ptr noundef nonnull align 8 dereferenceable(28) %this1, ptr noundef %9, ptr noundef %10, i1 noundef zeroext true)
  %vtable11 = load ptr, ptr %this1, align 8
  %vfn12 = getelementptr inbounds ptr, ptr %vtable11, i64 1
  %11 = load ptr, ptr %vfn12, align 8
  call void %11(ptr noundef nonnull align 8 dereferenceable(28) %this1)
  ret void
}