; Function Attrs: mustprogress nounwind uwtable
define hidden void @_ZN6hermes3hbc15BytecodeVisitor27visitInstructionsInFunctionEj(ptr noundef nonnull align 8 dereferenceable(28) %this, i32 noundef %funcId) local_unnamed_addr #1 align 2 {
entry:
  %funcId_ = getelementptr inbounds i8, ptr %this, i64 24
  store i32 %funcId, ptr %funcId_, align 8
  %bcProvider_ = getelementptr inbounds i8, ptr %this, i64 8
  %0 = load ptr, ptr %bcProvider_, align 8
  %vtable = load ptr, ptr %0, align 8
  %vfn = getelementptr inbounds i8, ptr %vtable, i64 32
  %1 = load ptr, ptr %vfn, align 8
  %call2 = tail call ptr %1(ptr noundef nonnull align 8 dereferenceable(280) %0, i32 noundef %funcId) #17
  %2 = load ptr, ptr %bcProvider_, align 8
  %vtable5 = load ptr, ptr %2, align 8
  %vfn6 = getelementptr inbounds i8, ptr %vtable5, i64 40
  %3 = load ptr, ptr %vfn6, align 8
  %call7 = tail call noundef ptr %3(ptr noundef nonnull align 8 dereferenceable(280) %2, i32 noundef %funcId) #17
  %4 = ptrtoint ptr %call2 to i64
  %and.i.i = and i64 %4, 1
  %tobool.i.not.i = icmp eq i64 %and.i.i, 0
  br i1 %tobool.i.not.i, label %if.else.i, label %if.then.i

if.then.i:                                        ; preds = %entry
  %bytecodeSizeInBytes.i = getelementptr inbounds i8, ptr %call2, i64 7
  %5 = load i32, ptr %bytecodeSizeInBytes.i, align 1
  br label %_ZNK6hermes3hbc21RuntimeFunctionHeader19bytecodeSizeInBytesEv.exit

if.else.i:                                        ; preds = %entry
  %bf.load.i = load i120, ptr %call2, align 1
  %bf.lshr.i = lshr i120 %bf.load.i, 32
  %6 = trunc i120 %bf.lshr.i to i32
  %bf.cast.i = and i32 %6, 32767
  br label %_ZNK6hermes3hbc21RuntimeFunctionHeader19bytecodeSizeInBytesEv.exit

_ZNK6hermes3hbc21RuntimeFunctionHeader19bytecodeSizeInBytesEv.exit: ; preds = %if.then.i, %if.else.i
  %retval.0.i = phi i32 [ %5, %if.then.i ], [ %bf.cast.i, %if.else.i ]
  %idx.ext = zext i32 %retval.0.i to i64
  %add.ptr = getelementptr inbounds i8, ptr %call7, i64 %idx.ext
  %vtable9 = load ptr, ptr %this, align 8
  %7 = load ptr, ptr %vtable9, align 8
  tail call void %7(ptr noundef nonnull align 8 dereferenceable(28) %this, i32 noundef %funcId, ptr noundef %call7) #17
  tail call void @_ZN6hermes3hbc15BytecodeVisitor23visitInstructionsInBodyEPKhS3_b(ptr noundef nonnull align 8 dereferenceable(28) %this, ptr noundef %call7, ptr noundef %add.ptr, i1 noundef zeroext true)
  %vtable11 = load ptr, ptr %this, align 8
  %vfn12 = getelementptr inbounds i8, ptr %vtable11, i64 8
  %8 = load ptr, ptr %vfn12, align 8
  tail call void %8(ptr noundef nonnull align 8 dereferenceable(28) %this) #17
  ret void
}